target datalayout = "e-m:e-p270:32:32-p271:32:32-p272:64:64-i64:64-i128:128-f80:128-n8:16:32:64-S128"
target triple = "x86_64-pc-linux-gnu"

%struct.QMetaObject = type { %struct.anon }
%struct.anon = type { %"struct.QMetaObject::SuperData", ptr, ptr, ptr, ptr, ptr }
%"struct.QMetaObject::SuperData" = type { ptr }
%struct.QArrayData = type { %"class.QtPrivate::RefCount", i32, i32, i64 }
%"class.QtPrivate::RefCount" = type { %class.QBasicAtomicInteger }
%class.QBasicAtomicInteger = type { %"struct.std::atomic" }
%"struct.std::atomic" = type { %"struct.std::__atomic_base" }
%"struct.std::__atomic_base" = type { i32 }
%class.QString = type { ptr }

@_ZN17TriOptimizePlugin16staticMetaObjectE = external global %struct.QMetaObject, align 8
@_ZN10QArrayData11shared_nullE = external global [2 x %struct.QArrayData], align 16
@.str.11 = private unnamed_addr constant [29 x i8] c"Planar flipping optimization\00", align 1
@.str.12 = private unnamed_addr constant [32 x i8] c"Curvature flipping optimization\00", align 1
@.str.13 = private unnamed_addr constant [38 x i8] c"Laplacian Smooth (surface preserving)\00", align 1

; Function Attrs: mustprogress nounwind uwtable
define linkonce_odr noundef ptr @_ZN10QArrayData10sharedNullEv() #4 comdat align 2 {
  ret ptr @_ZN10QArrayData11shared_nullE
}

; Function Attrs: mustprogress nounwind uwtable
define linkonce_odr noundef ptr @_ZN15QTypedArrayDataItE10sharedNullEv() #4 comdat align 2 {
  %1 = call noundef ptr @_ZN10QArrayData10sharedNullEv() #3
  ret ptr %1
}

; Function Attrs: mustprogress nounwind uwtable
define linkonce_odr void @_ZN7QStringC2Ev(ptr noundef nonnull align 8 dereferenceable(8) %0) unnamed_addr #4 comdat align 2 {
  %2 = alloca ptr, align 8
  store ptr %0, ptr %2, align 8
  %3 = load ptr, ptr %2, align 8
  %4 = getelementptr inbounds %class.QString, ptr %3, i32 0, i32 0
  %5 = call noundef ptr @_ZN15QTypedArrayDataItE10sharedNullEv() #3
  store ptr %5, ptr %4, align 8
  ret void
}

; Function Attrs: mustprogress uwtable
define linkonce_odr void @_ZN17TriOptimizePlugin2trEPKcS1_i(ptr dead_on_unwind noalias writable sret(%class.QString) align 8 %0, ptr noundef %1, ptr noundef %2, i32 noundef %3) #5 comdat align 2 {
  %5 = alloca ptr, align 8
  %6 = alloca ptr, align 8
  %7 = alloca ptr, align 8
  %8 = alloca i32, align 4
  store ptr %0, ptr %5, align 8
  store ptr %1, ptr %6, align 8
  store ptr %2, ptr %7, align 8
  store i32 %3, ptr %8, align 4
  %9 = load ptr, ptr %6, align 8
  %10 = load ptr, ptr %7, align 8
  %11 = load i32, ptr %8, align 4
  call void @_ZNK11QMetaObject2trEPKcS1_i(ptr dead_on_unwind writable sret(%class.QString) align 8 %0, ptr noundef nonnull align 8 dereferenceable(48) @_ZN17TriOptimizePlugin16staticMetaObjectE, ptr noundef %9, ptr noundef %10, i32 noundef %11)
  ret void
}

; Function Attrs: mustprogress uwtable
define void @_ZNK17TriOptimizePlugin10filterNameEi(ptr dead_on_unwind noalias writable sret(%class.QString) align 8 %0, ptr noundef nonnull align 8 dereferenceable(80) %1, i32 noundef %2) unnamed_addr #5 align 2 {
  %4 = alloca ptr, align 8
  %5 = alloca ptr, align 8
  %6 = alloca i32, align 4
  store ptr %0, ptr %4, align 8
  store ptr %1, ptr %5, align 8
  store i32 %2, ptr %6, align 4
  %7 = load i32, ptr %6, align 4
  switch i32 %7, label %11 [
    i32 1, label %8
    i32 0, label %9
    i32 2, label %10
  ]

8:                                                ; preds = %3
  call void @_ZN17TriOptimizePlugin2trEPKcS1_i(ptr dead_on_unwind writable sret(%class.QString) align 8 %0, ptr noundef @.str.11, ptr noundef null, i32 noundef -1)
  br label %12

9:                                                ; preds = %3
  call void @_ZN17TriOptimizePlugin2trEPKcS1_i(ptr dead_on_unwind writable sret(%class.QString) align 8 %0, ptr noundef @.str.12, ptr noundef null, i32 noundef -1)
  br label %12

10:                                               ; preds = %3
  call void @_ZN17TriOptimizePlugin2trEPKcS1_i(ptr dead_on_unwind writable sret(%class.QString) align 8 %0, ptr noundef @.str.13, ptr noundef null, i32 noundef -1)
  br label %12

11:                                               ; preds = %3
  call void @_ZN7QStringC2Ev(ptr noundef nonnull align 8 dereferenceable(8) %0) #3
  br label %12

12:                                               ; preds = %11, %10, %9, %8
  ret void
}

; Function Attrs: uwtable
define void @_ZThn16_NK17TriOptimizePlugin10filterNameEi(ptr dead_on_unwind noalias writable sret(%class.QString) align 8 %0, ptr noundef %1, i32 noundef %2) unnamed_addr #0 align 2 {
  %4 = alloca ptr, align 8
  %5 = alloca ptr, align 8
  %6 = alloca i32, align 4
  store ptr %0, ptr %4, align 8
  store ptr %1, ptr %5, align 8
  store i32 %2, ptr %6, align 4
  %7 = load ptr, ptr %5, align 8
  %8 = getelementptr inbounds i8, ptr %7, i64 -16
  %9 = load i32, ptr %6, align 4
  tail call void @_ZNK17TriOptimizePlugin10filterNameEi(ptr dead_on_unwind writable sret(%class.QString) align 8 %0, ptr noundef nonnull align 8 dereferenceable(80) %8, i32 noundef %9)
  ret void
}